(dp0
VImage Comics/mcfarlane Toys
p1
(lp2
(dp3
S'date'
p4
ctime
struct_time
p5
((I2013
I3
I27
I0
I0
I0
I2
I86
I-1
tp6
(dp7
tp8
Rp9
sS'price'
p10
VPI
p11
sS'link'
p12
Vhttp://www.previewsworld.com/Home/1/1/71/952?stockItemID=JAN130620
p13
sS'id'
p14
VJAN130620
p15
sS'title'
p16
VWalking Dead Tv Series 3 Af
p17
sa(dp18
g4
g9
sg10
VPI
p19
sg12
Vhttp://www.previewsworld.com/Home/1/1/71/952?stockItemID=JAN130623
p20
sg14
VJAN130623
p21
sg16
VWalking Dead Tv Series 3 Autopsy Zombie Af
p22
sa(dp23
g4
g9
sg10
VPI
p24
sg12
Vhttp://www.previewsworld.com/Home/1/1/71/952?stockItemID=JAN130622
p25
sg14
VJAN130622
p26
sg16
VWalking Dead Tv Series 3 Merle Dixon Af
p27
sa(dp28
g4
g9
sg10
VPI
p29
sg12
Vhttp://www.previewsworld.com/Home/1/1/71/952?stockItemID=JAN130621
p30
sg14
VJAN130621
p31
sg16
VWalking Dead Tv Series 3 Michonne Af
p32
sa(dp33
g4
g9
sg10
VPI
p34
sg12
Vhttp://www.previewsworld.com/Home/1/1/71/952?stockItemID=JAN130624
p35
sg14
VJAN130624
p36
sg16
VWalking Dead Tv Series 3 Pet Zombie 1 Af
p37
sa(dp38
g4
g9
sg10
VPI
p39
sg12
Vhttp://www.previewsworld.com/Home/1/1/71/952?stockItemID=JAN130625
p40
sg14
VJAN130625
p41
sg16
VWalking Dead Tv Series 3 Pet Zombie 2 Af
p42
sasVDark Horse Comics
p43
(lp44
(dp45
g4
g9
sg10
V$2.99
p46
sg12
Vhttp://www.previewsworld.com/Home/1/1/71/952?stockItemID=JAN130086
p47
sg14
VJAN130086
p48
sg16
VAngel & Faith #20 Steve Morris Cvr
p49
sa(dp50
g4
g9
sg10
V$19.99
p51
sg12
Vhttp://www.previewsworld.com/Home/1/1/71/952?stockItemID=NOV120066
p52
sg14
VNOV120066
p53
sg16
VAngelic Layer Tp Book 02
p54
sa(dp55
g4
g9
sg10
V$3.99
p56
sg12
Vhttp://www.previewsworld.com/Home/1/1/71/952?stockItemID=JAN130098
p57
sg14
VJAN130098
p58
sg16
VAnswer #3
p59
sa(dp60
g4
g9
sg10
V$39.99
p61
sg12
Vhttp://www.previewsworld.com/Home/1/1/71/952?stockItemID=OCT120060
p62
sg14
VOCT120060
p63
sg16
VArt Of Bioshock Infinite Hc
p64
sa(dp65
g4
g9
sg10
V$19.99
p66
sg12
Vhttp://www.previewsworld.com/Home/1/1/71/952?stockItemID=JAN130134
p67
sg14
VJAN130134
p68
sg16
VBaltimore Mens Adult T/s Lg
p69
sa(dp70
g4
g9
sg10
V$19.99
p71
sg12
Vhttp://www.previewsworld.com/Home/1/1/71/952?stockItemID=JAN130133
p72
sg14
VJAN130133
p73
sg16
VBaltimore Mens Adult T/s Med
p74
sa(dp75
g4
g9
sg10
V$19.99
p76
sg12
Vhttp://www.previewsworld.com/Home/1/1/71/952?stockItemID=JAN130135
p77
sg14
VJAN130135
p78
sg16
VBaltimore Mens Adult T/s Xl
p79
sa(dp80
g4
g9
sg10
V$19.99
p81
sg12
Vhttp://www.previewsworld.com/Home/1/1/71/952?stockItemID=JAN130136
p82
sg14
VJAN130136
p83
sg16
VBaltimore Mens Adult T/s Xxl
p84
sa(dp85
g4
g9
sg10
V$3.50
p86
sg12
Vhttp://www.previewsworld.com/Home/1/1/71/952?stockItemID=JAN130076
p87
sg14
VJAN130076
p88
sg16
VBprd Vampire #1
p89
sa(dp90
g4
g9
sg10
V$3.99
p91
sg12
Vhttp://www.previewsworld.com/Home/1/1/71/952?stockItemID=JAN130081
p92
sg14
VJAN130081
p93
sg16
VCriminal Macabre Final Night 30 Days Xover #4
p94
sa(dp95
g4
g9
sg10
V$24.99
p96
sg12
Vhttp://www.previewsworld.com/Home/1/1/71/952?stockItemID=JAN130126
p97
sg14
VJAN130126
p98
sg16
VDark Horse Womens Adult T/s Med
p99
sa(dp100
g4
g9
sg10
V$24.99
p101
sg12
Vhttp://www.previewsworld.com/Home/1/1/71/952?stockItemID=JAN130125
p102
sg14
VJAN130125
p103
sg16
VDark Horse Womens Adult T/s Sm
p104
sa(dp105
g4
g9
sg10
V$3.99
p106
sg12
Vhttp://www.previewsworld.com/Home/1/1/71/952?stockItemID=JAN130107
p107
sg14
VJAN130107
p108
sg16
VDragon Age Until We Sleep #1
p109
sa(dp110
g4
g9
sg10
V$24.99
p111
sg12
Vhttp://www.previewsworld.com/Home/1/1/71/952?stockItemID=OCT128298
p112
sg14
VOCT128298
p113
sg16
VFemina And Fauna Art Of Camilla D Errico Hc
p114
sa(dp115
g4
g9
sg10
V$16.99
p116
sg12
Vhttp://www.previewsworld.com/Home/1/1/71/952?stockItemID=NOV120093
p117
sg14
VNOV120093
p118
sg16
VGame Of Thrones Stark Metal Can Cooler
p119
sa(dp120
g4
g9
sg10
V$14.99
p121
sg12
Vhttp://www.previewsworld.com/Home/1/1/71/952?stockItemID=NOV120033
p122
sg14
VNOV120033
p123
sg16
VHusbands Hc
p124
sa(dp125
g4
g9
sg10
V$3.50
p126
sg12
Vhttp://www.previewsworld.com/Home/1/1/71/952?stockItemID=JAN130094
p127
sg14
VJAN130094
p128
sg16
VMassive #10
p129
sa(dp130
g4
g9
sg10
V$2.99
p131
sg12
Vhttp://www.previewsworld.com/Home/1/1/71/952?stockItemID=JAN130103
p132
sg14
VJAN130103
p133
sg16
VMister X Hard Candy One Shot
p134
sa(dp135
g4
g9
sg10
V$24.99
p136
sg12
Vhttp://www.previewsworld.com/Home/1/1/71/952?stockItemID=NOV120029
p137
sg14
VNOV120029
p138
sg16
VNexus Omnibus Tp Vol 02
p139
sa(dp140
g4
g9
sg10
V$2.99
p141
sg12
Vhttp://www.previewsworld.com/Home/1/1/71/952?stockItemID=DEC120050
p142
sg14
VDEC120050
p143
sg16
VStar Wars Dawn O/t Jedi Prisoner Of Bogan #4
p144
sasVIdw Publishing
p145
(lp146
(dp147
g4
g9
sg10
V$3.99
p148
sg12
Vhttp://www.previewsworld.com/Home/1/1/71/952?stockItemID=JAN138002
p149
sg14
VJAN138002
p150
sg16
VBorderlands Origins #1 4th Ptg
p151
sa(dp152
g4
g9
sg10
V$6.99
p153
sg12
Vhttp://www.previewsworld.com/Home/1/1/71/952?stockItemID=JAN130371
p154
sg14
VJAN130371
p155
sg16
VComplete Zaucer Of Zilk
p156
sa(dp157
g4
g9
sg10
V$3.99
p158
sg12
Vhttp://www.previewsworld.com/Home/1/1/71/952?stockItemID=JAN138000
p159
sg14
VJAN138000
p160
sg16
VDoctor Who Prisoners Of Time #2 2nd Ptg
p161
sa(dp162
g4
g9
sg10
V$3.99
p163
sg12
Vhttp://www.previewsworld.com/Home/1/1/71/952?stockItemID=JAN130422
p164
sg14
VJAN130422
p165
sg16
VDoctor Who Vol 3 #7
p166
sa(dp167
g4
g9
sg10
V$3.99
p168
sg12
Vhttp://www.previewsworld.com/Home/1/1/71/952?stockItemID=JAN130369
p169
sg14
VJAN130369
p170
sg16
VJudge Dredd #5
p171
sa(dp172
g4
g9
sg10
V$19.99
p173
sg12
Vhttp://www.previewsworld.com/Home/1/1/71/952?stockItemID=NOV120419
p174
sg14
VNOV120419
p175
sg16
VLoac Essentials Hc Vol 02 Gumps Saga Mary Gold
p176
sa(dp177
g4
g9
sg10
V$19.99
p178
sg12
Vhttp://www.previewsworld.com/Home/1/1/71/952?stockItemID=JAN130451
p179
sg14
VJAN130451
p180
sg16
VLove And Capes Tp Vol 04 What To Expect
p181
sa(dp182
g4
g9
sg10
V$3.99
p183
sg12
Vhttp://www.previewsworld.com/Home/1/1/71/952?stockItemID=JAN130386
p184
sg14
VJAN130386
p185
sg16
VMy Little Pony Friendship Is Magic #5
p186
sa(dp187
g4
g9
sg10
V$3.99
p188
sg12
Vhttp://www.previewsworld.com/Home/1/1/71/952?stockItemID=JAN130385
p189
sg14
VJAN130385
p190
sg16
VPopeye Classics Ongoing #8
p191
sa(dp192
g4
g9
sg10
V$3.99
p193
sg12
Vhttp://www.previewsworld.com/Home/1/1/71/952?stockItemID=JAN130442
p194
sg14
VJAN130442
p195
sg16
VStar Trek Ongoing #19
p196
sa(dp197
g4
g9
sg10
V$17.99
p198
sg12
Vhttp://www.previewsworld.com/Home/1/1/71/952?stockItemID=DEC120442
p199
sg14
VDEC120442
p200
sg16
VStar Trek Tng Hive Tp
p201
sa(dp202
g4
g9
sg10
V$19.99
p203
sg12
Vhttp://www.previewsworld.com/Home/1/1/71/952?stockItemID=JAN130403
p204
sg14
VJAN130403
p205
sg16
VTransformers More Than Meets The Eye Tp Vol 03
p206
sa(dp207
g4
g9
sg10
V$3.99
p208
sg12
Vhttp://www.previewsworld.com/Home/1/1/71/952?stockItemID=JAN130404
p209
sg14
VJAN130404
p210
sg16
VTransformers Robots In Disguise #15
p211
sa(dp212
g4
g9
sg10
V$3.99
p213
sg12
Vhttp://www.previewsworld.com/Home/1/1/71/952?stockItemID=DEC120487
p214
sg14
VDEC120487
p215
sg16
VTransfusion #3
p216
sa(dp217
g4
g9
sg10
V$3.99
p218
sg12
Vhttp://www.previewsworld.com/Home/1/1/71/952?stockItemID=JAN130449
p219
sg14
VJAN130449
p220
sg16
VVitriol The Hunter #2
p221
sasVDc Comics/dc Collectibles
p222
(lp223
(dp224
g4
g9
sg10
V$399.95
p225
sg12
Vhttp://www.previewsworld.com/Home/1/1/71/952?stockItemID=DEC120379
p226
sg14
VDEC120379
p227
sg16
VBatman Dark Knight Returns Call To Arms Statue
p228
sa(dp229
g4
g9
sg10
V$79.95
p230
sg12
Vhttp://www.previewsworld.com/Home/1/1/71/952?stockItemID=JAN130346
p231
sg14
VJAN130346
p232
sg16
VSuperman The Man Of Steel Statue By Lee Bermejo
p233
sasVMarvel Comics
p234
(lp235
(dp236
g4
g9
sg10
V$3.99
p237
sg12
Vhttp://www.previewsworld.com/Home/1/1/71/952?stockItemID=JAN130709
p238
sg14
VJAN130709
p239
sg16
VA Plus X #6 Now
p240
sa(dp241
g4
g9
sg10
V$3.99
p242
sg12
Vhttp://www.previewsworld.com/Home/1/1/71/952?stockItemID=JAN130637
p243
sg14
VJAN130637
p244
sg16
VAge Of Ultron #3
p245
sa(dp246
g4
g9
sg10
V$24.99
p247
sg12
Vhttp://www.previewsworld.com/Home/1/1/71/952?stockItemID=DEC120733
p248
sg14
VDEC120733
p249
sg16
VAll New X-men Prem Hc Vol 01 Yesterdays X-men Now
p250
sa(dp251
g4
g9
sg10
V$3.99
p252
sg12
Vhttp://www.previewsworld.com/Home/1/1/71/952?stockItemID=JAN130745
p253
sg14
VJAN130745
p254
sg16
VAstonishing X-men #60 Xt
p255
sa(dp256
g4
g9
sg10
V$16.99
p257
sg12
Vhttp://www.previewsworld.com/Home/1/1/71/952?stockItemID=JAN130785
p258
sg14
VJAN130785
p259
sg16
VAstonishing X-men Tp Vol 11 Weaponized
p260
sa(dp261
g4
g9
sg10
V$34.99
p262
sg12
Vhttp://www.previewsworld.com/Home/1/1/71/952?stockItemID=JAN130771
p263
sg14
VJAN130771
p264
sg16
VAvengers Vs X-men Tp
p265
sa(dp266
g4
g9
sg10
V$2.99
p267
sg12
Vhttp://www.previewsworld.com/Home/1/1/71/952?stockItemID=JAN130741
p268
sg14
VJAN130741
p269
sg16
VDeadpool Killustrated #3
p270
sa(dp271
g4
g9
sg10
V$39.99
p272
sg12
Vhttp://www.previewsworld.com/Home/1/1/71/952?stockItemID=JAN130788
p273
sg14
VJAN130788
p274
sg16
VDoom 2099 Complete Collection By Warren Ellis Tp
p275
sa(dp276
g4
g9
sg10
V$3.99
p277
sg12
Vhttp://www.previewsworld.com/Home/1/1/71/952?stockItemID=JAN130640
p278
sg14
VJAN130640
p279
sg16
VFantastic Four #5au Now
p280
sa(dp281
g4
g9
sg10
V$2.99
p282
sg12
Vhttp://www.previewsworld.com/Home/1/1/71/952?stockItemID=JAN130691
p283
sg14
VJAN130691
p284
sg16
VFf #5 Now
p285
sa(dp286
g4
g9
sg10
V$3.99
p287
sg12
Vhttp://www.previewsworld.com/Home/1/1/71/952?stockItemID=JAN130751
p288
sg14
VJAN130751
p289
sg16
VFury Max #10
p290
sa(dp291
g4
g9
sg10
V$2.99
p292
sg12
Vhttp://www.previewsworld.com/Home/1/1/71/952?stockItemID=JAN130748
p293
sg14
VJAN130748
p294
sg16
VGambit #10
p295
sa(dp296
g4
g9
sg10
V$3.99
p297
sg12
Vhttp://www.previewsworld.com/Home/1/1/71/952?stockItemID=JAN130642
p298
sg14
VJAN130642
p299
sg16
VGuardians Of Galaxy #1 Now
p300
sa(dp301
g4
g9
sg10
V$2.99
p302
sg12
Vhttp://www.previewsworld.com/Home/1/1/71/952?stockItemID=JAN138150
p303
sg14
VJAN138150
p304
sg16
VHawkeye #1 5th Ptg Aja Var
p305
sa(dp306
g4
g9
sg10
V$2.99
p307
sg12
Vhttp://www.previewsworld.com/Home/1/1/71/952?stockItemID=JAN130701
p308
sg14
VJAN130701
p309
sg16
VJourney Into Mystery #650 Now2
p310
sa(dp311
g4
g9
sg10
V$19.99
p312
sg12
Vhttp://www.previewsworld.com/Home/1/1/71/952?stockItemID=AUG120686
p313
sg14
VAUG120686
p314
sg16
VKick-ass 2 Tp
p315
sa(dp316
g4
g9
sg10
V$2.99
p317
sg12
Vhttp://www.previewsworld.com/Home/1/1/71/952?stockItemID=JAN130739
p318
sg14
VJAN130739
p319
sg16
VMarvel Universe Ultimate Spider-man #12
p320
sa(dp321
g4
g9
sg10
V$16.99
p322
sg12
Vhttp://www.previewsworld.com/Home/1/1/71/952?stockItemID=JAN130782
p323
sg14
VJAN130782
p324
sg16
VMarvel Universe Vs Avengers Tp
p325
sa(dp326
g4
g9
sg10
V$19.99
p327
sg12
Vhttp://www.previewsworld.com/Home/1/1/71/952?stockItemID=DEC120745
p328
sg14
VDEC120745
p329
sg16
VMighty Thor By Matt Fraction Tp Vol 03
p330
sa(dp331
g4
g9
sg10
V$29.99
p332
sg12
Vhttp://www.previewsworld.com/Home/1/1/71/952?stockItemID=JAN130776
p333
sg14
VJAN130776
p334
sg16
VMmw Golden Age Human Torch Tp Vol 01
p335
sa(dp336
g4
g9
sg10
V$2.99
p337
sg12
Vhttp://www.previewsworld.com/Home/1/1/71/952?stockItemID=JAN130685
p338
sg14
VJAN130685
p339
sg16
VMorbius Living Vampire #3 Now
p340
sa(dp341
g4
g9
sg10
V$3.95
p342
sg12
Vhttp://www.previewsworld.com/Home/1/1/71/952?stockItemID=JAN130752
p343
sg14
VJAN130752
p344
sg16
VPowers Bureau #3
p345
sa(dp346
g4
g9
sg10
V$2.99
p347
sg12
Vhttp://www.previewsworld.com/Home/1/1/71/952?stockItemID=JAN130717
p348
sg14
VJAN130717
p349
sg16
VScarlet Spider #15
p350
sa(dp351
g4
g9
sg10
V$16.99
p352
sg12
Vhttp://www.previewsworld.com/Home/1/1/71/952?stockItemID=DEC120749
p353
sg14
VDEC120749
p354
sg16
VSpider-man Lizard Tp No Turning Back
p355
sa(dp356
g4
g9
sg10
V$3.99
p357
sg12
Vhttp://www.previewsworld.com/Home/1/1/71/952?stockItemID=JAN130641
p358
sg14
VJAN130641
p359
sg16
VSuperior Spider-man #6au Now
p360
sa(dp361
g4
g9
sg10
V$2.99
p362
sg12
Vhttp://www.previewsworld.com/Home/1/1/71/952?stockItemID=JAN130711
p363
sg14
VJAN130711
p364
sg16
VThunderbolts #7 Now2
p365
sa(dp366
g4
g9
sg10
V$3.99
p367
sg12
Vhttp://www.previewsworld.com/Home/1/1/71/952?stockItemID=JAN130727
p368
sg14
VJAN130727
p369
sg16
VUltimate Comics Wolverine #2
p370
sa(dp371
g4
g9
sg10
V$3.99
p372
sg12
Vhttp://www.previewsworld.com/Home/1/1/71/952?stockItemID=DEC120620
p373
sg14
VDEC120620
p374
sg16
VUncanny Avengers #5 Now2
p375
sa(dp376
g4
g9
sg10
V$3.99
p377
sg12
Vhttp://www.previewsworld.com/Home/1/1/71/952?stockItemID=JAN130697
p378
sg14
VJAN130697
p379
sg16
VUncanny X-force #3 Now
p380
sa(dp381
g4
g9
sg10
V$3.99
p382
sg12
Vhttp://www.previewsworld.com/Home/1/1/71/952?stockItemID=JAN130750
p383
sg14
VJAN130750
p384
sg16
VWolverine And X-men #27
p385
sa(dp386
g4
g9
sg10
V$16.99
p387
sg12
Vhttp://www.previewsworld.com/Home/1/1/71/952?stockItemID=DEC120741
p388
sg14
VDEC120741
p389
sg16
VWolverine And X-men By Jason Aaron Tp Vol 03 Avx
p390
sa(dp391
g4
g9
sg10
V$2.99
p392
sg12
Vhttp://www.previewsworld.com/Home/1/1/71/952?stockItemID=JAN130708
p393
sg14
VJAN130708
p394
sg16
VX-men Legacy #8 Now2
p395
sa(dp396
g4
g9
sg10
V$2.99
p397
sg12
Vhttp://www.previewsworld.com/Home/1/1/71/952?stockItemID=JAN130670
p398
sg14
VJAN130670
p399
sg16
VYoung Avengers #3 Now
p400
sasVImage Comics
p401
(lp402
(dp403
g4
g9
sg10
V$19.99
p404
sg12
Vhttp://www.previewsworld.com/Home/1/1/71/952?stockItemID=JAN130489
p405
sg14
VJAN130489
p406
sg16
V68 Tp Vol 02 Scars
p407
sa(dp408
g4
g9
sg10
V$24.99
p409
sg12
Vhttp://www.previewsworld.com/Home/1/1/71/952?stockItemID=NOV120478
p410
sg14
VNOV120478
p411
sg16
VBomb Queen Dlx Ed Hc Vol 01
p412
sa(dp413
g4
g9
sg10
V$2.99
p414
sg12
Vhttp://www.previewsworld.com/Home/1/1/71/952?stockItemID=JAN130577
p415
sg14
VJAN130577
p416
sg16
VClone #5
p417
sa(dp418
g4
g9
sg10
V$4.99
p419
sg12
Vhttp://www.previewsworld.com/Home/1/1/71/952?stockItemID=JAN130581
p420
sg14
VJAN130581
p421
sg16
VDia De Los Muertos #2
p422
sa(dp423
g4
g9
sg10
V$3.50
p424
sg12
Vhttp://www.previewsworld.com/Home/1/1/71/952?stockItemID=JAN130468
p425
sg14
VJAN130468
p426
sg16
VEast Of West #1
p427
sa(dp428
g4
g9
sg10
V$3.50
p429
sg12
Vhttp://www.previewsworld.com/Home/1/1/71/952?stockItemID=DEC120562
p430
sg14
VDEC120562
p431
sg16
VFatale #13
p432
sa(dp433
g4
g9
sg10
V$3.50
p434
sg12
Vhttp://www.previewsworld.com/Home/1/1/71/952?stockItemID=JAN130585
p435
sg14
VJAN130585
p436
sg16
VFive Weapons #2
p437
sa(dp438
g4
g9
sg10
V$16.99
p439
sg12
Vhttp://www.previewsworld.com/Home/1/1/71/952?stockItemID=JAN130495
p440
sg14
VJAN130495
p441
sg16
VGuarding The Globe Tp Vol 02
p442
sa(dp443
g4
g9
sg10
V$3.50
p444
sg12
Vhttp://www.previewsworld.com/Home/1/1/71/952?stockItemID=JAN130588
p445
sg14
VJAN130588
p446
sg16
VHack Slash #25 Cvr A Seeley & Marco
p447
sa(dp448
g4
g9
sg10
V$3.50
p449
sg12
Vhttp://www.previewsworld.com/Home/1/1/71/952?stockItemID=JAN130589
p450
sg14
VJAN130589
p451
sg16
VHack Slash #25 Cvr B Frison
p452
sa(dp453
g4
g9
sg10
V$3.50
p454
sg12
Vhttp://www.previewsworld.com/Home/1/1/71/952?stockItemID=JAN130590
p455
sg14
VJAN130590
p456
sg16
VHack Slash #25 Cvr C Giarusso
p457
sa(dp458
g4
g9
sg10
V$14.99
p459
sg12
Vhttp://www.previewsworld.com/Home/1/1/71/952?stockItemID=JAN130497
p460
sg14
VJAN130497
p461
sg16
VIt Girl & Atomics Round One Dark Streets Snap City Tp
p462
sa(dp463
g4
g9
sg10
V$3.50
p464
sg12
Vhttp://www.previewsworld.com/Home/1/1/71/952?stockItemID=JAN138238
p465
sg14
VJAN138238
p466
sg16
VLegend Of Luther Strode #2 2nd Ptg
p467
sa(dp468
g4
g9
sg10
V$3.50
p469
sg12
Vhttp://www.previewsworld.com/Home/1/1/71/952?stockItemID=JAN130597
p470
sg14
VJAN130597
p471
sg16
VLegend Of Luther Strode #4
p472
sa(dp473
g4
g9
sg10
V$3.99
p474
sg12
Vhttp://www.previewsworld.com/Home/1/1/71/952?stockItemID=OCT120469
p475
sg14
VOCT120469
p476
sg16
VMorning Glories #25
p477
sa(dp478
g4
g9
sg10
V$2.99
p479
sg12
Vhttp://www.previewsworld.com/Home/1/1/71/952?stockItemID=SEP120516
p480
sg14
VSEP120516
p481
sg16
VPlanetoid #5
p482
sa(dp483
g4
g9
sg10
V$3.50
p484
sg12
Vhttp://www.previewsworld.com/Home/1/1/71/952?stockItemID=JAN130477
p485
sg14
VJAN130477
p486
sg16
VSavage Skullkickers #1 Cvr A Huang & Zub
p487
sa(dp488
g4
g9
sg10
V$3.50
p489
sg12
Vhttp://www.previewsworld.com/Home/1/1/71/952?stockItemID=JAN130478
p490
sg14
VJAN130478
p491
sg16
VSavage Skullkickers #1 Cvr B Stevens
p492
sa(dp493
g4
g9
sg10
V$29.99
p494
sg12
Vhttp://www.previewsworld.com/Home/1/1/71/952?stockItemID=JAN130515
p495
sg14
VJAN130515
p496
sg16
VSpawn Origins Hc Vol 08
p497
sa(dp498
g4
g9
sg10
V$3.99
p499
sg12
Vhttp://www.previewsworld.com/Home/1/1/71/952?stockItemID=DEC120590
p500
sg14
VDEC120590
p501
sg16
VThink Tank #6
p502
sa(dp503
g4
g9
sg10
V$2.99
p504
sg12
Vhttp://www.previewsworld.com/Home/1/1/71/952?stockItemID=JAN138185
p505
sg14
VJAN138185
p506
sg16
VTodd The Ugliest Kid On Earth #2 2nd Ptg
p507
sa(dp508
g4
g9
sg10
V$2.99
p509
sg12
Vhttp://www.previewsworld.com/Home/1/1/71/952?stockItemID=JAN130619
p510
sg14
VJAN130619
p511
sg16
VWitch Doctor Malpractice #5
p512
sasVDc Comics
p513
(lp514
(dp515
g4
g9
sg10
V$3.99
p516
sg12
Vhttp://www.previewsworld.com/Home/1/1/71/952?stockItemID=JAN130275
p517
sg14
VJAN130275
p518
sg16
VAll Star Western #18
p519
sa(dp520
g4
g9
sg10
V$29.99
p521
sg12
Vhttp://www.previewsworld.com/Home/1/1/71/952?stockItemID=NOV120298
p522
sg14
VNOV120298
p523
sg16
VAmerican Vampire Hc Vol 05
p524
sa(dp525
g4
g9
sg10
V$2.99
p526
sg12
Vhttp://www.previewsworld.com/Home/1/1/71/952?stockItemID=JAN130209
p527
sg14
VJAN130209
p528
sg16
VAquaman #18
p529
sa(dp530
g4
g9
sg10
V$3.99
p531
sg12
Vhttp://www.previewsworld.com/Home/1/1/71/952?stockItemID=JAN130287
p532
sg14
VJAN130287
p533
sg16
VArrow #5
p534
sa(dp535
g4
g9
sg10
V$2.99
p536
sg12
Vhttp://www.previewsworld.com/Home/1/1/71/952?stockItemID=JAN130229
p537
sg14
VJAN130229
p538
sg16
VBatman Incorporated #9
p539
sa(dp540
g4
g9
sg10
V$3.99
p541
sg12
Vhttp://www.previewsworld.com/Home/1/1/71/952?stockItemID=JAN130232
p542
sg14
VJAN130232
p543
sg16
VBatman Incorporated #9 Combo Pack
p544
sa(dp545
g4
g9
sg10
V$2.99
p546
sg12
Vhttp://www.previewsworld.com/Home/1/1/71/952?stockItemID=JAN130240
p547
sg14
VJAN130240
p548
sg16
VBatman The Dark Knight #18
p549
sa(dp550
g4
g9
sg10
V$14.99
p551
sg12
Vhttp://www.previewsworld.com/Home/1/1/71/952?stockItemID=DEC120327
p552
sg14
VDEC120327
p553
sg16
VBatwing Tp Vol 02 In The Shadow Of Ancients
p554
sa(dp555
g4
g9
sg10
V$14.99
p556
sg12
Vhttp://www.previewsworld.com/Home/1/1/71/952?stockItemID=DEC120330
p557
sg14
VDEC120330
p558
sg16
VDay Of Judgment Tp
p559
sa(dp560
g4
g9
sg10
V$2.99
p561
sg12
Vhttp://www.previewsworld.com/Home/1/1/71/952?stockItemID=JAN130211
p562
sg14
VJAN130211
p563
sg16
VFlash #18
p564
sa(dp565
g4
g9
sg10
V$2.99
p566
sg12
Vhttp://www.previewsworld.com/Home/1/1/71/952?stockItemID=JAN130217
p567
sg14
VJAN130217
p568
sg16
VFury Of Firestorm The Nuclear Man #18
p569
sa(dp570
g4
g9
sg10
V$2.99
p571
sg12
Vhttp://www.previewsworld.com/Home/1/1/71/952?stockItemID=JAN130271
p572
sg14
VJAN130271
p573
sg16
VI Vampire #18
p574
sa(dp575
g4
g9
sg10
V$3.99
p576
sg12
Vhttp://www.previewsworld.com/Home/1/1/71/952?stockItemID=JAN130327
p577
sg14
VJAN130327
p578
sg16
VInjustice Gods Among Us #3
p579
sa(dp580
g4
g9
sg10
V$4.99
p581
sg12
Vhttp://www.previewsworld.com/Home/1/1/71/952?stockItemID=JAN130291
p582
sg14
VJAN130291
p583
sg16
VJoe Kubert Presents #6
p584
sa(dp585
g4
g9
sg10
V$2.99
p586
sg12
Vhttp://www.previewsworld.com/Home/1/1/71/952?stockItemID=JAN130264
p587
sg14
VJAN130264
p588
sg16
VJustice League Dark #18
p589
sa(dp590
g4
g9
sg10
V$2.99
p591
sg12
Vhttp://www.previewsworld.com/Home/1/1/71/952?stockItemID=JAN130260
p592
sg14
VJAN130260
p593
sg16
VRed Lanterns #18
p594
sa(dp595
g4
g9
sg10
V$2.99
p596
sg12
Vhttp://www.previewsworld.com/Home/1/1/71/952?stockItemID=JAN130215
p597
sg14
VJAN130215
p598
sg16
VSavage Hawkman #18
p599
sa(dp600
g4
g9
sg10
V$19.99
p601
sg12
Vhttp://www.previewsworld.com/Home/1/1/71/952?stockItemID=NOV120267
p602
sg14
VNOV120267
p603
sg16
VShowcase Presents Sgt Rock Tp Vol 04
p604
sa(dp605
g4
g9
sg10
V$2.99
p606
sg12
Vhttp://www.previewsworld.com/Home/1/1/71/952?stockItemID=JAN130225
p607
sg14
VJAN130225
p608
sg16
VSuperman #18
p609
sa(dp610
g4
g9
sg10
V$2.99
p611
sg12
Vhttp://www.previewsworld.com/Home/1/1/71/952?stockItemID=JAN130324
p612
sg14
VJAN130324
p613
sg16
VSuperman Family Adventures #11
p614
sa(dp615
g4
g9
sg10
V$9.99
p616
sg12
Vhttp://www.previewsworld.com/Home/1/1/71/952?stockItemID=DEC120339
p617
sg14
VDEC120339
p618
sg16
VSuperman Vs Zod Tp
p619
sa(dp620
g4
g9
sg10
V$2.99
p621
sg12
Vhttp://www.previewsworld.com/Home/1/1/71/952?stockItemID=JAN130238
p622
sg14
VJAN130238
p623
sg16
VTalon #6
p624
sa(dp625
g4
g9
sg10
V$2.99
p626
sg12
Vhttp://www.previewsworld.com/Home/1/1/71/952?stockItemID=JAN130280
p627
sg14
VJAN130280
p628
sg16
VTeen Titans #18
p629
sa(dp630
g4
g9
sg10
V$7.99
p631
sg12
Vhttp://www.previewsworld.com/Home/1/1/71/952?stockItemID=JAN130333
p632
sg14
VJAN130333
p633
sg16
VTime Warp #1
p634
sa(dp635
g4
g9
sg10
V$2.99
p636
sg12
Vhttp://www.previewsworld.com/Home/1/1/71/952?stockItemID=JAN130339
p637
sg14
VJAN130339
p638
sg16
VUnwritten #47
p639
sa(dp640
g4
g9
sg10
V$14.99
p641
sg12
Vhttp://www.previewsworld.com/Home/1/1/71/952?stockItemID=DEC120368
p642
sg14
VDEC120368
p643
sg16
VUnwritten Tp Vol 07 The Wound
p644
sas.